target datalayout = "e-m:e-p270:32:32-p271:32:32-p272:64:64-i64:64-i128:128-f80:128-n8:16:32:64-S128"
target triple = "x86_64-pc-linux-gnu"

%struct.SDL_VideoDevice = type { ptr, ptr, ptr, ptr, ptr, ptr, ptr, ptr, ptr, ptr, ptr, ptr, ptr, ptr, ptr, ptr, ptr, ptr, ptr, ptr, ptr, ptr, ptr, ptr, ptr, ptr, ptr, ptr, ptr, ptr, ptr, ptr, ptr, ptr, ptr, ptr, ptr, ptr, ptr, ptr, ptr, ptr, ptr, ptr, ptr, ptr, ptr, ptr, ptr, ptr, ptr, ptr, ptr, ptr, ptr, ptr, ptr, ptr, ptr, ptr, ptr, ptr, ptr, ptr, ptr, ptr, ptr, ptr, ptr, ptr, ptr, ptr, ptr, ptr, ptr, ptr, ptr, ptr, ptr, ptr, ptr, ptr, ptr, ptr, ptr, ptr, ptr, ptr, ptr, ptr, ptr, ptr, ptr, ptr, ptr, ptr, ptr, i64, i8, i8, i8, ptr, i32, ptr, %struct.SDL_Rect, ptr, ptr, i32, ptr, ptr, ptr, ptr, i64, ptr, i8, i32, i32, %struct.anon, ptr, ptr, ptr, ptr, ptr, ptr, %struct.SDL_AtomicInt, %struct.SDL_AtomicInt, i8, %struct.anon.0, ptr, ptr, ptr, ptr, ptr }
%struct.SDL_Rect = type { i32, i32, i32, i32 }
%struct.anon = type { i32, i32, i32, i32, i32, i32, i32, i32, i32, i32, i32, i32, i32, i32, i32, i32, i32, i32, i32, i32, i32, i32, i32, i32, i32, i32, i32, i32, i32, [256 x i8], ptr }
%struct.SDL_AtomicInt = type { i32 }
%struct.anon.0 = type { ptr, ptr, i32, [256 x i8], ptr }
%struct.SDL_GLDriverData = type { i32, i32, i8, i8, i8, i8, i8, i8, %struct.anon.1, i32, ptr, ptr, ptr, ptr, ptr, ptr, ptr, ptr, ptr, ptr, ptr, ptr, ptr, ptr, ptr }
%struct.anon.1 = type { i32, i32 }

@.str.14 = private unnamed_addr constant [20 x i8] c"SDL_VIDEO_FORCE_EGL\00", align 1
@.str.16 = private unnamed_addr constant [21 x i8] c"SDL_OPENGL_ES_DRIVER\00", align 1

; Function Attrs: nounwind uwtable
define hidden zeroext i1 @X11_GL_UseEGL(ptr noundef %0) #0 {
  %2 = alloca i1, align 1
  %3 = alloca ptr, align 8
  store ptr %0, ptr %3, align 8
  br label %4

4:                                                ; preds = %1
  br label %5

5:                                                ; preds = %4
  %6 = call zeroext i1 @SDL_GetHintBoolean_REAL(ptr noundef @.str.14, i1 noundef zeroext false)
  br i1 %6, label %7, label %8

7:                                                ; preds = %5
  store i1 true, ptr %2, align 1
  br label %58

8:                                                ; preds = %5
  br label %9

9:                                                ; preds = %8
  br label %10

10:                                               ; preds = %9
  %11 = call zeroext i1 @SDL_GetHintBoolean_REAL(ptr noundef @.str.16, i1 noundef zeroext false)
  br i1 %11, label %56, label %12

12:                                               ; preds = %10
  %13 = load ptr, ptr %3, align 8
  %14 = getelementptr inbounds nuw %struct.SDL_VideoDevice, ptr %13, i32 0, i32 117
  %15 = getelementptr inbounds nuw %struct.anon, ptr %14, i32 0, i32 17
  %16 = load i32, ptr %15, align 4
  %17 = icmp eq i32 %16, 1
  br i1 %17, label %56, label %18

18:                                               ; preds = %12
  %19 = load ptr, ptr %3, align 8
  %20 = getelementptr inbounds nuw %struct.SDL_VideoDevice, ptr %19, i32 0, i32 117
  %21 = getelementptr inbounds nuw %struct.anon, ptr %20, i32 0, i32 17
  %22 = load i32, ptr %21, align 4
  %23 = load ptr, ptr %3, align 8
  %24 = getelementptr inbounds nuw %struct.SDL_VideoDevice, ptr %23, i32 0, i32 129
  %25 = load ptr, ptr %24, align 8
  %26 = getelementptr inbounds nuw %struct.SDL_GLDriverData, ptr %25, i32 0, i32 8
  %27 = getelementptr inbounds nuw %struct.anon.1, ptr %26, i32 0, i32 0
  %28 = load i32, ptr %27, align 8
  %29 = icmp sgt i32 %22, %28
  br i1 %29, label %56, label %30

30:                                               ; preds = %18
  %31 = load ptr, ptr %3, align 8
  %32 = getelementptr inbounds nuw %struct.SDL_VideoDevice, ptr %31, i32 0, i32 117
  %33 = getelementptr inbounds nuw %struct.anon, ptr %32, i32 0, i32 17
  %34 = load i32, ptr %33, align 4
  %35 = load ptr, ptr %3, align 8
  %36 = getelementptr inbounds nuw %struct.SDL_VideoDevice, ptr %35, i32 0, i32 129
  %37 = load ptr, ptr %36, align 8
  %38 = getelementptr inbounds nuw %struct.SDL_GLDriverData, ptr %37, i32 0, i32 8
  %39 = getelementptr inbounds nuw %struct.anon.1, ptr %38, i32 0, i32 0
  %40 = load i32, ptr %39, align 8
  %41 = icmp eq i32 %34, %40
  br i1 %41, label %42, label %54

42:                                               ; preds = %30
  %43 = load ptr, ptr %3, align 8
  %44 = getelementptr inbounds nuw %struct.SDL_VideoDevice, ptr %43, i32 0, i32 117
  %45 = getelementptr inbounds nuw %struct.anon, ptr %44, i32 0, i32 18
  %46 = load i32, ptr %45, align 8
  %47 = load ptr, ptr %3, align 8
  %48 = getelementptr inbounds nuw %struct.SDL_VideoDevice, ptr %47, i32 0, i32 129
  %49 = load ptr, ptr %48, align 8
  %50 = getelementptr inbounds nuw %struct.SDL_GLDriverData, ptr %49, i32 0, i32 8
  %51 = getelementptr inbounds nuw %struct.anon.1, ptr %50, i32 0, i32 1
  %52 = load i32, ptr %51, align 4
  %53 = icmp sgt i32 %46, %52
  br label %54

54:                                               ; preds = %42, %30
  %55 = phi i1 [ false, %30 ], [ %53, %42 ]
  br label %56

56:                                               ; preds = %54, %18, %12, %10
  %57 = phi i1 [ true, %18 ], [ true, %12 ], [ true, %10 ], [ %55, %54 ]
  store i1 %57, ptr %2, align 1
  br label %58

58:                                               ; preds = %56, %7
  %59 = load i1, ptr %2, align 1
  ret i1 %59
}