; Function Attrs: nounwind uwtable
define hidden zeroext i1 @X11_GL_UseEGL(ptr noundef readonly captures(none) %0) local_unnamed_addr #0 {
  %2 = tail call zeroext i1 @SDL_GetHintBoolean_REAL(ptr noundef nonnull @.str.14, i1 noundef zeroext false) #6
  br i1 %2, label %23, label %3

3:                                                ; preds = %1
  %4 = tail call zeroext i1 @SDL_GetHintBoolean_REAL(ptr noundef nonnull @.str.16, i1 noundef zeroext false) #6
  br i1 %4, label %23, label %5

5:                                                ; preds = %3
  %6 = getelementptr inbounds nuw i8, ptr %0, i64 988
  %7 = load i32, ptr %6, align 4
  %8 = icmp eq i32 %7, 1
  br i1 %8, label %23, label %9

9:                                                ; preds = %5
  %10 = getelementptr inbounds nuw i8, ptr %0, i64 1664
  %11 = load ptr, ptr %10, align 8
  %12 = getelementptr inbounds nuw i8, ptr %11, i64 16
  %13 = load i32, ptr %12, align 8
  %14 = icmp sgt i32 %7, %13
  br i1 %14, label %23, label %15

15:                                               ; preds = %9
  %16 = icmp eq i32 %7, %13
  br i1 %16, label %17, label %23

17:                                               ; preds = %15
  %18 = getelementptr inbounds nuw i8, ptr %0, i64 992
  %19 = load i32, ptr %18, align 8
  %20 = getelementptr inbounds nuw i8, ptr %11, i64 20
  %21 = load i32, ptr %20, align 4
  %22 = icmp sgt i32 %19, %21
  br label %23

23:                                               ; preds = %3, %5, %9, %17, %15, %1
  %.0 = phi i1 [ true, %1 ], [ true, %9 ], [ true, %5 ], [ true, %3 ], [ false, %15 ], [ %22, %17 ]
  ret i1 %.0
}